; ModuleID = '29/1112.c'
source_filename = "29/1112.c"
target datalayout = "e-m:e-p270:32:32-p271:32:32-p272:64:64-i64:64-f80:128-n8:16:32:64-S128"
target triple = "x86_64-pc-linux-gnu"

@.str = private unnamed_addr constant [3 x i8] c"%d\00", align 1
@.str.1 = private unnamed_addr constant [7 x i8] c"%.3lf\0A\00", align 1
@.str.2 = private unnamed_addr constant [6 x i8] c"%.3lf\00", align 1

; Function Attrs: noinline nounwind uwtable
define dso_local i32 @main() #0 {
  %1 = alloca i32, align 4
  %2 = alloca double, align 8
  %3 = alloca i32, align 4
  %4 = alloca i32, align 4
  %5 = alloca i32, align 4
  %6 = alloca i32, align 4
  %7 = alloca i32*, align 8
  store i32 0, i32* %1, align 4
  store double 0.000000e+00, double* %2, align 8
  %8 = call i32 (i8*, ...) @__isoc99_scanf(i8* getelementptr inbounds ([3 x i8], [3 x i8]* @.str, i64 0, i64 0), i32* %3)
  store i32 0, i32* %6, align 4
  br label %9

9:                                                ; preds = %97, %0
  %10 = load i32, i32* %6, align 4
  %11 = load i32, i32* %3, align 4
  %12 = icmp slt i32 %10, %11
  br i1 %12, label %13, label %100

13:                                               ; preds = %9
  store double 0.000000e+00, double* %2, align 8
  %14 = call i32 (i8*, ...) @__isoc99_scanf(i8* getelementptr inbounds ([3 x i8], [3 x i8]* @.str, i64 0, i64 0), i32* %4)
  %15 = load i32, i32* %4, align 4
  %16 = add nsw i32 %15, 2
  %17 = sext i32 %16 to i64
  %18 = mul i64 4, %17
  %19 = call noalias i8* @malloc(i64 %18) #3
  %20 = bitcast i8* %19 to i32*
  store i32* %20, i32** %7, align 8
  store i32 0, i32* %5, align 4
  br label %21

21:                                               ; preds = %56, %13
  %22 = load i32, i32* %5, align 4
  %23 = load i32, i32* %4, align 4
  %24 = add nsw i32 %23, 2
  %25 = icmp slt i32 %22, %24
  br i1 %25, label %26, label %59

26:                                               ; preds = %21
  %27 = load i32, i32* %5, align 4
  %28 = icmp eq i32 %27, 0
  br i1 %28, label %32, label %29

29:                                               ; preds = %26
  %30 = load i32, i32* %5, align 4
  %31 = icmp eq i32 %30, 1
  br i1 %31, label %32, label %37

32:                                               ; preds = %29, %26
  %33 = load i32*, i32** %7, align 8
  %34 = load i32, i32* %5, align 4
  %35 = sext i32 %34 to i64
  %36 = getelementptr inbounds i32, i32* %33, i64 %35
  store i32 1, i32* %36, align 4
  br label %55

37:                                               ; preds = %29
  %38 = load i32*, i32** %7, align 8
  %39 = load i32, i32* %5, align 4
  %40 = sub nsw i32 %39, 1
  %41 = sext i32 %40 to i64
  %42 = getelementptr inbounds i32, i32* %38, i64 %41
  %43 = load i32, i32* %42, align 4
  %44 = load i32*, i32** %7, align 8
  %45 = load i32, i32* %5, align 4
  %46 = sub nsw i32 %45, 2
  %47 = sext i32 %46 to i64
  %48 = getelementptr inbounds i32, i32* %44, i64 %47
  %49 = load i32, i32* %48, align 4
  %50 = add nsw i32 %43, %49
  %51 = load i32*, i32** %7, align 8
  %52 = load i32, i32* %5, align 4
  %53 = sext i32 %52 to i64
  %54 = getelementptr inbounds i32, i32* %51, i64 %53
  store i32 %50, i32* %54, align 4
  br label %55

55:                                               ; preds = %37, %32
  br label %56

56:                                               ; preds = %55
  %57 = load i32, i32* %5, align 4
  %58 = add nsw i32 %57, 1
  store i32 %58, i32* %5, align 4
  br label %21

59:                                               ; preds = %21
  store i32 0, i32* %5, align 4
  br label %60

60:                                               ; preds = %82, %59
  %61 = load i32, i32* %5, align 4
  %62 = load i32, i32* %4, align 4
  %63 = icmp slt i32 %61, %62
  br i1 %63, label %64, label %85

64:                                               ; preds = %60
  %65 = load i32*, i32** %7, align 8
  %66 = load i32, i32* %5, align 4
  %67 = add nsw i32 %66, 2
  %68 = sext i32 %67 to i64
  %69 = getelementptr inbounds i32, i32* %65, i64 %68
  %70 = load i32, i32* %69, align 4
  %71 = sitofp i32 %70 to double
  %72 = load i32*, i32** %7, align 8
  %73 = load i32, i32* %5, align 4
  %74 = add nsw i32 %73, 1
  %75 = sext i32 %74 to i64
  %76 = getelementptr inbounds i32, i32* %72, i64 %75
  %77 = load i32, i32* %76, align 4
  %78 = sitofp i32 %77 to double
  %79 = fdiv double %71, %78
  %80 = load double, double* %2, align 8
  %81 = fadd double %80, %79
  store double %81, double* %2, align 8
  br label %82

82:                                               ; preds = %64
  %83 = load i32, i32* %5, align 4
  %84 = add nsw i32 %83, 1
  store i32 %84, i32* %5, align 4
  br label %60

85:                                               ; preds = %60
  %86 = load i32, i32* %6, align 4
  %87 = load i32, i32* %3, align 4
  %88 = sub nsw i32 %87, 1
  %89 = icmp slt i32 %86, %88
  br i1 %89, label %90, label %93

90:                                               ; preds = %85
  %91 = load double, double* %2, align 8
  %92 = call i32 (i8*, ...) @printf(i8* getelementptr inbounds ([7 x i8], [7 x i8]* @.str.1, i64 0, i64 0), double %91)
  br label %96

93:                                               ; preds = %85
  %94 = load double, double* %2, align 8
  %95 = call i32 (i8*, ...) @printf(i8* getelementptr inbounds ([6 x i8], [6 x i8]* @.str.2, i64 0, i64 0), double %94)
  br label %96

96:                                               ; preds = %93, %90
  br label %97

97:                                               ; preds = %96
  %98 = load i32, i32* %6, align 4
  %99 = add nsw i32 %98, 1
  store i32 %99, i32* %6, align 4
  br label %9

100:                                              ; preds = %9
  ret i32 0
}

declare dso_local i32 @__isoc99_scanf(i8*, ...) #1

; Function Attrs: nounwind
declare dso_local noalias i8* @malloc(i64) #2

declare dso_local i32 @printf(i8*, ...) #1


!llvm.module.flags = !{!0}
!llvm.ident = !{!1}

!0 = !{i32 1, !"wchar_size", i32 4}
!1 = !{!"clang version 10.0.0-4ubuntu1 "}
